target datalayout = "e-m:e-p270:32:32-p271:32:32-p272:64:64-i64:64-i128:128-f80:128-n8:16:32:64-S128"
target triple = "x86_64-pc-linux-gnu"

%"class.absl::lts_20240722::Duration" = type { %"class.absl::lts_20240722::Duration::HiRep", i32 }
%"class.absl::lts_20240722::Duration::HiRep" = type { i32, i32 }
%"class.absl::lts_20240722::Time" = type { %"class.absl::lts_20240722::Duration" }

; Function Attrs: mustprogress nounwind uwtable
define linkonce_odr noundef nonnull align 4 dereferenceable(8) ptr @_ZN4absl12lts_202407228Duration5HiRepaSEl(ptr noundef nonnull align 4 dereferenceable(8) %0, i64 noundef %1) #5 comdat align 2 {
  %3 = alloca ptr, align 8
  %4 = alloca i64, align 8
  %5 = alloca i64, align 8
  store ptr %0, ptr %3, align 8, !tbaa !138
  store i64 %1, ptr %4, align 8, !tbaa !11
  %6 = load ptr, ptr %3, align 8
  call void @llvm.lifetime.start.p0(i64 8, ptr %5) #15
  %7 = load i64, ptr %4, align 8, !tbaa !11
  store i64 %7, ptr %5, align 8, !tbaa !11
  %8 = load i64, ptr %5, align 8, !tbaa !11
  %9 = lshr i64 %8, 32
  %10 = trunc i64 %9 to i32
  %11 = getelementptr inbounds nuw %"class.absl::lts_20240722::Duration::HiRep", ptr %6, i32 0, i32 1
  store i32 %10, ptr %11, align 4, !tbaa !140
  %12 = load i64, ptr %5, align 8, !tbaa !11
  %13 = trunc i64 %12 to i32
  %14 = getelementptr inbounds nuw %"class.absl::lts_20240722::Duration::HiRep", ptr %6, i32 0, i32 0
  store i32 %13, ptr %14, align 4, !tbaa !141
  call void @llvm.lifetime.end.p0(i64 8, ptr %5) #15
  ret ptr %6
}

; Function Attrs: mustprogress nounwind willreturn memory(none) uwtable
define linkonce_odr { i64, i32 } @_ZN4absl12lts_2024072213time_internal12MakeDurationEll(i64 noundef %0, i64 noundef %1) #1 comdat {
  %3 = alloca %"class.absl::lts_20240722::Duration", align 4
  %4 = alloca i64, align 8
  %5 = alloca i64, align 8
  %6 = alloca { i64, i32 }, align 8
  %7 = alloca { i64, i32 }, align 8
  store i64 %0, ptr %4, align 8, !tbaa !11
  store i64 %1, ptr %5, align 8, !tbaa !11
  %8 = load i64, ptr %4, align 8, !tbaa !11
  %9 = load i64, ptr %5, align 8, !tbaa !11
  %10 = trunc i64 %9 to i32
  %11 = call { i64, i32 } @_ZN4absl12lts_2024072213time_internal12MakeDurationElj(i64 noundef %8, i32 noundef %10) #14
  store { i64, i32 } %11, ptr %6, align 8
  call void @llvm.memcpy.p0.p0.i64(ptr align 4 %3, ptr align 8 %6, i64 12, i1 false)
  call void @llvm.memcpy.p0.p0.i64(ptr align 8 %7, ptr align 4 %3, i64 12, i1 false)
  %12 = load { i64, i32 }, ptr %7, align 8
  ret { i64, i32 } %12
}

; Function Attrs: mustprogress uwtable
define linkonce_odr void @_ZN4absl12lts_202407228Duration5HiRepC2El(ptr noundef nonnull align 4 dereferenceable(8) %0, i64 noundef %1) unnamed_addr #0 comdat align 2 {
  %3 = alloca ptr, align 8
  %4 = alloca i64, align 8
  store ptr %0, ptr %3, align 8, !tbaa !138
  store i64 %1, ptr %4, align 8, !tbaa !11
  %5 = load ptr, ptr %3, align 8
  %6 = getelementptr inbounds nuw %"class.absl::lts_20240722::Duration::HiRep", ptr %5, i32 0, i32 0
  store i32 0, ptr %6, align 4, !tbaa !141
  %7 = getelementptr inbounds nuw %"class.absl::lts_20240722::Duration::HiRep", ptr %5, i32 0, i32 1
  store i32 0, ptr %7, align 4, !tbaa !140
  %8 = load i64, ptr %4, align 8, !tbaa !11
  %9 = call noundef nonnull align 4 dereferenceable(8) ptr @_ZN4absl12lts_202407228Duration5HiRepaSEl(ptr noundef nonnull align 4 dereferenceable(8) %5, i64 noundef %8)
  ret void
}

; Function Attrs: mustprogress nounwind willreturn memory(none) uwtable
define linkonce_odr { i64, i32 } @_ZN4absl12lts_2024072213time_internal22MakeNormalizedDurationEll(i64 noundef %0, i64 noundef %1) #1 comdat {
  %3 = alloca %"class.absl::lts_20240722::Duration", align 4
  %4 = alloca i64, align 8
  %5 = alloca i64, align 8
  %6 = alloca { i64, i32 }, align 8
  %7 = alloca { i64, i32 }, align 8
  %8 = alloca { i64, i32 }, align 8
  store i64 %0, ptr %4, align 8, !tbaa !11
  store i64 %1, ptr %5, align 8, !tbaa !11
  %9 = load i64, ptr %5, align 8, !tbaa !11
  %10 = icmp slt i64 %9, 0
  br i1 %10, label %11, label %17

11:                                               ; preds = %2
  %12 = load i64, ptr %4, align 8, !tbaa !11
  %13 = sub nsw i64 %12, 1
  %14 = load i64, ptr %5, align 8, !tbaa !11
  %15 = add nsw i64 %14, 4000000000
  %16 = call { i64, i32 } @_ZN4absl12lts_2024072213time_internal12MakeDurationEll(i64 noundef %13, i64 noundef %15) #14
  store { i64, i32 } %16, ptr %6, align 8
  call void @llvm.memcpy.p0.p0.i64(ptr align 4 %3, ptr align 8 %6, i64 12, i1 false)
  br label %21

17:                                               ; preds = %2
  %18 = load i64, ptr %4, align 8, !tbaa !11
  %19 = load i64, ptr %5, align 8, !tbaa !11
  %20 = call { i64, i32 } @_ZN4absl12lts_2024072213time_internal12MakeDurationEll(i64 noundef %18, i64 noundef %19) #14
  store { i64, i32 } %20, ptr %7, align 8
  call void @llvm.memcpy.p0.p0.i64(ptr align 4 %3, ptr align 8 %7, i64 12, i1 false)
  br label %21

21:                                               ; preds = %17, %11
  call void @llvm.memcpy.p0.p0.i64(ptr align 8 %8, ptr align 4 %3, i64 12, i1 false)
  %22 = load { i64, i32 }, ptr %8, align 8
  ret { i64, i32 } %22
}

; Function Attrs: mustprogress uwtable
define linkonce_odr void @_ZN4absl12lts_202407228DurationC2Elj(ptr noundef nonnull align 4 dereferenceable(12) %0, i64 noundef %1, i32 noundef %2) unnamed_addr #0 comdat align 2 {
  %4 = alloca ptr, align 8
  %5 = alloca i64, align 8
  %6 = alloca i32, align 4
  store ptr %0, ptr %4, align 8, !tbaa !150
  store i64 %1, ptr %5, align 8, !tbaa !11
  store i32 %2, ptr %6, align 4, !tbaa !9
  %7 = load ptr, ptr %4, align 8
  %8 = getelementptr inbounds nuw %"class.absl::lts_20240722::Duration", ptr %7, i32 0, i32 0
  %9 = load i64, ptr %5, align 8, !tbaa !11
  call void @_ZN4absl12lts_202407228Duration5HiRepC2El(ptr noundef nonnull align 4 dereferenceable(8) %8, i64 noundef %9)
  %10 = getelementptr inbounds nuw %"class.absl::lts_20240722::Duration", ptr %7, i32 0, i32 1
  %11 = load i32, ptr %6, align 4, !tbaa !9
  store i32 %11, ptr %10, align 4, !tbaa !67
  ret void
}

; Function Attrs: mustprogress uwtable
define linkonce_odr noundef nonnull align 4 dereferenceable(12) ptr @_ZN4absl12lts_202407224TimepLENS0_8DurationE(ptr noundef nonnull align 4 dereferenceable(12) %0, i64 %1, i32 %2) #0 comdat align 2 {
  %4 = alloca %"class.absl::lts_20240722::Duration", align 4
  %5 = alloca { i64, i32 }, align 4
  %6 = alloca ptr, align 8
  %7 = alloca %"class.absl::lts_20240722::Duration", align 4
  %8 = alloca { i64, i32 }, align 4
  %9 = getelementptr inbounds nuw { i64, i32 }, ptr %5, i32 0, i32 0
  store i64 %1, ptr %9, align 4
  %10 = getelementptr inbounds nuw { i64, i32 }, ptr %5, i32 0, i32 1
  store i32 %2, ptr %10, align 4
  call void @llvm.memcpy.p0.p0.i64(ptr align 4 %4, ptr align 4 %5, i64 12, i1 false)
  store ptr %0, ptr %6, align 8, !tbaa !3
  %11 = load ptr, ptr %6, align 8
  call void @llvm.memcpy.p0.p0.i64(ptr align 4 %7, ptr align 4 %4, i64 12, i1 false), !tbaa.struct !8
  %12 = getelementptr inbounds nuw %"class.absl::lts_20240722::Time", ptr %11, i32 0, i32 0
  call void @llvm.memcpy.p0.p0.i64(ptr align 4 %8, ptr align 4 %7, i64 12, i1 false)
  %13 = getelementptr inbounds nuw { i64, i32 }, ptr %8, i32 0, i32 0
  %14 = load i64, ptr %13, align 4
  %15 = getelementptr inbounds nuw { i64, i32 }, ptr %8, i32 0, i32 1
  %16 = load i32, ptr %15, align 4
  %17 = call noundef nonnull align 4 dereferenceable(12) ptr @_ZN4absl12lts_202407228DurationpLES1_(ptr noundef nonnull align 4 dereferenceable(12) %12, i64 %14, i32 %16)
  ret ptr %11
}

; Function Attrs: mustprogress uwtable
define linkonce_odr noundef nonnull align 4 dereferenceable(12) ptr @_ZN4absl12lts_202407228DurationmLIiTnNSt9enable_ifIXoosr3std11is_integralIT_EE5valuesr3std7is_enumIS4_EE5valueEiE4typeELi0EEERS1_S4_(ptr noundef nonnull align 4 dereferenceable(12) %0, i32 noundef %1) #0 comdat align 2 {
  %3 = alloca ptr, align 8
  %4 = alloca i32, align 4
  %5 = alloca i64, align 8
  store ptr %0, ptr %3, align 8, !tbaa !150
  store i32 %1, ptr %4, align 4, !tbaa !9
  %6 = load ptr, ptr %3, align 8
  call void @llvm.lifetime.start.p0(i64 8, ptr %5) #15
  %7 = load i32, ptr %4, align 4, !tbaa !9
  %8 = sext i32 %7 to i64
  store i64 %8, ptr %5, align 8, !tbaa !11
  %9 = load i64, ptr %5, align 8, !tbaa !11
  %10 = call noundef nonnull align 4 dereferenceable(12) ptr @_ZN4absl12lts_202407228DurationmLEl(ptr noundef nonnull align 4 dereferenceable(12) %6, i64 noundef %9)
  call void @llvm.lifetime.end.p0(i64 8, ptr %5) #15
  ret ptr %10
}

; Function Attrs: mustprogress nounwind willreturn memory(none) uwtable
define linkonce_odr { i64, i32 } @_ZN4absl12lts_2024072213time_internal9FromInt64ILl1000000000EEENS0_8DurationElSt5ratioILl1EXT_EE(i64 noundef %0) #1 comdat {
  %2 = alloca %"class.absl::lts_20240722::Duration", align 4
  %3 = alloca i64, align 8
  %4 = alloca { i64, i32 }, align 8
  %5 = alloca { i64, i32 }, align 8
  store i64 %0, ptr %3, align 8, !tbaa !11
  %6 = load i64, ptr %3, align 8, !tbaa !11
  %7 = sdiv i64 %6, 1000000000
  %8 = load i64, ptr %3, align 8, !tbaa !11
  %9 = srem i64 %8, 1000000000
  %10 = mul nsw i64 %9, 4
  %11 = mul nsw i64 %10, 1000
  %12 = mul nsw i64 %11, 1000
  %13 = mul nsw i64 %12, 1000
  %14 = sdiv i64 %13, 1000000000
  %15 = call { i64, i32 } @_ZN4absl12lts_2024072213time_internal22MakeNormalizedDurationEll(i64 noundef %7, i64 noundef %14) #14
  store { i64, i32 } %15, ptr %4, align 8
  call void @llvm.memcpy.p0.p0.i64(ptr align 4 %2, ptr align 8 %4, i64 12, i1 false)
  call void @llvm.memcpy.p0.p0.i64(ptr align 8 %5, ptr align 4 %2, i64 12, i1 false)
  %16 = load { i64, i32 }, ptr %5, align 8
  ret { i64, i32 } %16
}

; Function Attrs: mustprogress nounwind uwtable
define linkonce_odr void @_ZN4absl12lts_202407224TimeC2ENS0_8DurationE(ptr noundef nonnull align 4 dereferenceable(12) %0, i64 %1, i32 %2) unnamed_addr #5 comdat align 2 {
  %4 = alloca %"class.absl::lts_20240722::Duration", align 4
  %5 = alloca { i64, i32 }, align 4
  %6 = alloca ptr, align 8
  %7 = getelementptr inbounds nuw { i64, i32 }, ptr %5, i32 0, i32 0
  store i64 %1, ptr %7, align 4
  %8 = getelementptr inbounds nuw { i64, i32 }, ptr %5, i32 0, i32 1
  store i32 %2, ptr %8, align 4
  call void @llvm.memcpy.p0.p0.i64(ptr align 4 %4, ptr align 4 %5, i64 12, i1 false)
  store ptr %0, ptr %6, align 8, !tbaa !3
  %9 = load ptr, ptr %6, align 8
  %10 = getelementptr inbounds nuw %"class.absl::lts_20240722::Time", ptr %9, i32 0, i32 0
  call void @llvm.memcpy.p0.p0.i64(ptr align 4 %10, ptr align 4 %4, i64 12, i1 false), !tbaa.struct !8
  ret void
}

; Function Attrs: mustprogress nounwind willreturn memory(none) uwtable
define linkonce_odr { i64, i32 } @_ZN4absl12lts_2024072213time_internal12MakeDurationElj(i64 noundef %0, i32 noundef %1) #1 comdat {
  %3 = alloca %"class.absl::lts_20240722::Duration", align 4
  %4 = alloca i64, align 8
  %5 = alloca i32, align 4
  %6 = alloca { i64, i32 }, align 8
  store i64 %0, ptr %4, align 8, !tbaa !11
  store i32 %1, ptr %5, align 4, !tbaa !9
  %7 = load i64, ptr %4, align 8, !tbaa !11
  %8 = load i32, ptr %5, align 4, !tbaa !9
  call void @_ZN4absl12lts_202407228DurationC2Elj(ptr noundef nonnull align 4 dereferenceable(12) %3, i64 noundef %7, i32 noundef %8)
  call void @llvm.memcpy.p0.p0.i64(ptr align 8 %6, ptr align 4 %3, i64 12, i1 false)
  %9 = load { i64, i32 }, ptr %6, align 8
  ret { i64, i32 } %9
}

; Function Attrs: inlinehint mustprogress nounwind willreturn memory(none) uwtable
define linkonce_odr { i64, i32 } @_ZN4absl12lts_20240722plENS0_4TimeENS0_8DurationE(i64 %0, i32 %1, i64 %2, i32 %3) #8 comdat {
  %5 = alloca %"class.absl::lts_20240722::Time", align 4
  %6 = alloca %"class.absl::lts_20240722::Time", align 4
  %7 = alloca { i64, i32 }, align 4
  %8 = alloca %"class.absl::lts_20240722::Duration", align 4
  %9 = alloca { i64, i32 }, align 4
  %10 = alloca %"class.absl::lts_20240722::Duration", align 4
  %11 = alloca { i64, i32 }, align 4
  %12 = alloca { i64, i32 }, align 8
  %13 = getelementptr inbounds nuw { i64, i32 }, ptr %7, i32 0, i32 0
  store i64 %0, ptr %13, align 4
  %14 = getelementptr inbounds nuw { i64, i32 }, ptr %7, i32 0, i32 1
  store i32 %1, ptr %14, align 4
  call void @llvm.memcpy.p0.p0.i64(ptr align 4 %6, ptr align 4 %7, i64 12, i1 false)
  %15 = getelementptr inbounds nuw { i64, i32 }, ptr %9, i32 0, i32 0
  store i64 %2, ptr %15, align 4
  %16 = getelementptr inbounds nuw { i64, i32 }, ptr %9, i32 0, i32 1
  store i32 %3, ptr %16, align 4
  call void @llvm.memcpy.p0.p0.i64(ptr align 4 %8, ptr align 4 %9, i64 12, i1 false)
  call void @llvm.memcpy.p0.p0.i64(ptr align 4 %10, ptr align 4 %8, i64 12, i1 false), !tbaa.struct !8
  call void @llvm.memcpy.p0.p0.i64(ptr align 4 %11, ptr align 4 %10, i64 12, i1 false)
  %17 = getelementptr inbounds nuw { i64, i32 }, ptr %11, i32 0, i32 0
  %18 = load i64, ptr %17, align 4
  %19 = getelementptr inbounds nuw { i64, i32 }, ptr %11, i32 0, i32 1
  %20 = load i32, ptr %19, align 4
  %21 = call noundef nonnull align 4 dereferenceable(12) ptr @_ZN4absl12lts_202407224TimepLENS0_8DurationE(ptr noundef nonnull align 4 dereferenceable(12) %6, i64 %18, i32 %20)
  call void @llvm.memcpy.p0.p0.i64(ptr align 4 %5, ptr align 4 %21, i64 12, i1 false), !tbaa.struct !8
  %22 = getelementptr inbounds nuw %"class.absl::lts_20240722::Time", ptr %5, i32 0, i32 0
  call void @llvm.memcpy.p0.p0.i64(ptr align 8 %12, ptr align 4 %22, i64 12, i1 false)
  %23 = load { i64, i32 }, ptr %12, align 8
  ret { i64, i32 } %23
}

; Function Attrs: mustprogress nounwind willreturn memory(none) uwtable
define linkonce_odr { i64, i32 } @_ZN4absl12lts_20240722mlIiEENS0_8DurationET_S2_(i32 noundef %0, i64 %1, i32 %2) #1 comdat {
  %4 = alloca %"class.absl::lts_20240722::Duration", align 4
  %5 = alloca %"class.absl::lts_20240722::Duration", align 4
  %6 = alloca { i64, i32 }, align 4
  %7 = alloca i32, align 4
  %8 = alloca { i64, i32 }, align 8
  %9 = getelementptr inbounds nuw { i64, i32 }, ptr %6, i32 0, i32 0
  store i64 %1, ptr %9, align 4
  %10 = getelementptr inbounds nuw { i64, i32 }, ptr %6, i32 0, i32 1
  store i32 %2, ptr %10, align 4
  call void @llvm.memcpy.p0.p0.i64(ptr align 4 %5, ptr align 4 %6, i64 12, i1 false)
  store i32 %0, ptr %7, align 4, !tbaa !9
  %11 = load i32, ptr %7, align 4, !tbaa !9
  %12 = call noundef nonnull align 4 dereferenceable(12) ptr @_ZN4absl12lts_202407228DurationmLIiTnNSt9enable_ifIXoosr3std11is_integralIT_EE5valuesr3std7is_enumIS4_EE5valueEiE4typeELi0EEERS1_S4_(ptr noundef nonnull align 4 dereferenceable(12) %5, i32 noundef %11)
  call void @llvm.memcpy.p0.p0.i64(ptr align 4 %4, ptr align 4 %12, i64 12, i1 false), !tbaa.struct !8
  call void @llvm.memcpy.p0.p0.i64(ptr align 8 %8, ptr align 4 %4, i64 12, i1 false)
  %13 = load { i64, i32 }, ptr %8, align 8
  ret { i64, i32 } %13
}

; Function Attrs: mustprogress nounwind willreturn memory(none) uwtable
define linkonce_odr { i64, i32 } @_ZN4absl12lts_2024072211NanosecondsIlTnNSt9enable_ifIXoosr3std11is_integralIT_EE5valuesr3std7is_enumIS3_EE5valueEiE4typeELi0EEENS0_8DurationES3_(i64 noundef %0) #1 comdat {
  %2 = alloca %"class.absl::lts_20240722::Duration", align 4
  %3 = alloca i64, align 8
  %4 = alloca { i64, i32 }, align 8
  %5 = alloca { i64, i32 }, align 8
  store i64 %0, ptr %3, align 8, !tbaa !11
  %6 = load i64, ptr %3, align 8, !tbaa !11
  %7 = call { i64, i32 } @_ZN4absl12lts_2024072213time_internal9FromInt64ILl1000000000EEENS0_8DurationElSt5ratioILl1EXT_EE(i64 noundef %6) #14
  store { i64, i32 } %7, ptr %4, align 8
  call void @llvm.memcpy.p0.p0.i64(ptr align 4 %2, ptr align 8 %4, i64 12, i1 false)
  call void @llvm.memcpy.p0.p0.i64(ptr align 8 %5, ptr align 4 %2, i64 12, i1 false)
  %8 = load { i64, i32 }, ptr %5, align 8
  ret { i64, i32 } %8
}

; Function Attrs: mustprogress nounwind willreturn memory(none) uwtable
define linkonce_odr { i64, i32 } @_ZN4absl12lts_2024072214UniversalEpochEv() #1 comdat {
  %1 = alloca %"class.absl::lts_20240722::Time", align 4
  %2 = alloca %"class.absl::lts_20240722::Duration", align 4
  %3 = alloca { i64, i32 }, align 8
  %4 = alloca { i64, i32 }, align 4
  %5 = alloca { i64, i32 }, align 8
  %6 = call { i64, i32 } @_ZN4absl12lts_2024072213time_internal12MakeDurationElj(i64 noundef -62135596800, i32 noundef 0) #14
  store { i64, i32 } %6, ptr %3, align 8
  call void @llvm.memcpy.p0.p0.i64(ptr align 4 %2, ptr align 8 %3, i64 12, i1 false)
  call void @llvm.memcpy.p0.p0.i64(ptr align 4 %4, ptr align 4 %2, i64 12, i1 false)
  %7 = getelementptr inbounds nuw { i64, i32 }, ptr %4, i32 0, i32 0
  %8 = load i64, ptr %7, align 4
  %9 = getelementptr inbounds nuw { i64, i32 }, ptr %4, i32 0, i32 1
  %10 = load i32, ptr %9, align 4
  call void @_ZN4absl12lts_202407224TimeC2ENS0_8DurationE(ptr noundef nonnull align 4 dereferenceable(12) %1, i64 %8, i32 %10)
  %11 = getelementptr inbounds nuw %"class.absl::lts_20240722::Time", ptr %1, i32 0, i32 0
  call void @llvm.memcpy.p0.p0.i64(ptr align 8 %5, ptr align 4 %11, i64 12, i1 false)
  %12 = load { i64, i32 }, ptr %5, align 8
  ret { i64, i32 } %12
}

; Function Attrs: mustprogress nounwind willreturn memory(none) uwtable
define { i64, i32 } @_ZN4absl12lts_2024072213FromUniversalEl(i64 noundef %0) #1 {
  %2 = alloca %"class.absl::lts_20240722::Time", align 4
  %3 = alloca i64, align 8
  %4 = alloca %"class.absl::lts_20240722::Time", align 4
  %5 = alloca { i64, i32 }, align 8
  %6 = alloca %"class.absl::lts_20240722::Duration", align 4
  %7 = alloca %"class.absl::lts_20240722::Duration", align 4
  %8 = alloca { i64, i32 }, align 8
  %9 = alloca { i64, i32 }, align 4
  %10 = alloca { i64, i32 }, align 8
  %11 = alloca { i64, i32 }, align 4
  %12 = alloca { i64, i32 }, align 4
  %13 = alloca { i64, i32 }, align 8
  %14 = alloca { i64, i32 }, align 8
  store i64 %0, ptr %3, align 8, !tbaa !11
  %15 = call { i64, i32 } @_ZN4absl12lts_2024072214UniversalEpochEv() #14
  %16 = getelementptr inbounds nuw %"class.absl::lts_20240722::Time", ptr %4, i32 0, i32 0
  store { i64, i32 } %15, ptr %5, align 8
  call void @llvm.memcpy.p0.p0.i64(ptr align 4 %16, ptr align 8 %5, i64 12, i1 false)
  %17 = load i64, ptr %3, align 8, !tbaa !11
  %18 = call { i64, i32 } @_ZN4absl12lts_2024072211NanosecondsIlTnNSt9enable_ifIXoosr3std11is_integralIT_EE5valuesr3std7is_enumIS3_EE5valueEiE4typeELi0EEENS0_8DurationES3_(i64 noundef %17) #14
  store { i64, i32 } %18, ptr %8, align 8
  call void @llvm.memcpy.p0.p0.i64(ptr align 4 %7, ptr align 8 %8, i64 12, i1 false)
  call void @llvm.memcpy.p0.p0.i64(ptr align 4 %9, ptr align 4 %7, i64 12, i1 false)
  %19 = getelementptr inbounds nuw { i64, i32 }, ptr %9, i32 0, i32 0
  %20 = load i64, ptr %19, align 4
  %21 = getelementptr inbounds nuw { i64, i32 }, ptr %9, i32 0, i32 1
  %22 = load i32, ptr %21, align 4
  %23 = call { i64, i32 } @_ZN4absl12lts_20240722mlIiEENS0_8DurationET_S2_(i32 noundef 100, i64 %20, i32 %22) #14
  store { i64, i32 } %23, ptr %10, align 8
  call void @llvm.memcpy.p0.p0.i64(ptr align 4 %6, ptr align 8 %10, i64 12, i1 false)
  call void @llvm.memcpy.p0.p0.i64(ptr align 4 %11, ptr align 4 %4, i64 12, i1 false)
  %24 = getelementptr inbounds nuw { i64, i32 }, ptr %11, i32 0, i32 0
  %25 = load i64, ptr %24, align 4
  %26 = getelementptr inbounds nuw { i64, i32 }, ptr %11, i32 0, i32 1
  %27 = load i32, ptr %26, align 4
  call void @llvm.memcpy.p0.p0.i64(ptr align 4 %12, ptr align 4 %6, i64 12, i1 false)
  %28 = getelementptr inbounds nuw { i64, i32 }, ptr %12, i32 0, i32 0
  %29 = load i64, ptr %28, align 4
  %30 = getelementptr inbounds nuw { i64, i32 }, ptr %12, i32 0, i32 1
  %31 = load i32, ptr %30, align 4
  %32 = call { i64, i32 } @_ZN4absl12lts_20240722plENS0_4TimeENS0_8DurationE(i64 %25, i32 %27, i64 %29, i32 %31) #14
  %33 = getelementptr inbounds nuw %"class.absl::lts_20240722::Time", ptr %2, i32 0, i32 0
  store { i64, i32 } %32, ptr %13, align 8
  call void @llvm.memcpy.p0.p0.i64(ptr align 4 %33, ptr align 8 %13, i64 12, i1 false)
  %34 = getelementptr inbounds nuw %"class.absl::lts_20240722::Time", ptr %2, i32 0, i32 0
  call void @llvm.memcpy.p0.p0.i64(ptr align 8 %14, ptr align 4 %34, i64 12, i1 false)
  %35 = load { i64, i32 }, ptr %14, align 8
  ret { i64, i32 } %35
}