; Function Attrs: mustprogress nofree nosync nounwind willreturn memory(none) uwtable
define { i64, i32 } @_ZN4absl12lts_2024072213FromUniversalEl(i64 noundef %0) local_unnamed_addr #4 {
  %2 = alloca %"class.absl::lts_20240722::Time", align 8
  %3 = alloca %"class.absl::lts_20240722::Duration", align 8
  %4 = sdiv i64 %0, 1000000000
  %5 = srem i64 %0, 1000000000
  %6 = icmp slt i64 %5, 0
  %.tr.i.i = trunc nsw i64 %5 to i32
  %7 = shl i32 %.tr.i.i, 2
  %8 = add i32 %7, -294967296
  %.lobit.i.i.i = ashr i64 %5, 61
  %.pn17.i.i.i = add nsw i64 %.lobit.i.i.i, %4
  %.pn15.i.i.i = select i1 %6, i32 %8, i32 %7
  call void @llvm.lifetime.start.p0(i64 12, ptr nonnull %3)
  store i64 %.pn17.i.i.i, ptr %3, align 8
  %.sroa.22.0..sroa_idx.i = getelementptr inbounds nuw i8, ptr %3, i64 8
  store i32 %.pn15.i.i.i, ptr %.sroa.22.0..sroa_idx.i, align 8
  %9 = call noundef nonnull align 4 dereferenceable(12) ptr @_ZN4absl12lts_202407228DurationmLEl(ptr noundef nonnull align 4 dereferenceable(12) %3, i64 noundef 100) #13
  %.sroa.03.0.copyload.i = load i64, ptr %9, align 4
  %.sroa.24.0..sroa_idx.i = getelementptr inbounds nuw i8, ptr %9, i64 8
  %.sroa.24.0.copyload.i = load i32, ptr %.sroa.24.0..sroa_idx.i, align 4, !tbaa !3
  call void @llvm.lifetime.end.p0(i64 12, ptr nonnull %3)
  call void @llvm.lifetime.start.p0(i64 12, ptr nonnull %2)
  store i64 -62135596800, ptr %2, align 8
  %.sroa.210.0..sroa_idx.i = getelementptr inbounds nuw i8, ptr %2, i64 8
  store i32 0, ptr %.sroa.210.0..sroa_idx.i, align 8
  %10 = call noundef nonnull align 4 dereferenceable(12) ptr @_ZN4absl12lts_202407228DurationpLES1_(ptr noundef nonnull align 4 dereferenceable(12) %2, i64 %.sroa.03.0.copyload.i, i32 %.sroa.24.0.copyload.i) #13
  %.sroa.011.0.copyload.i = load i64, ptr %2, align 8
  %.sroa.212.0.copyload.i = load i32, ptr %.sroa.210.0..sroa_idx.i, align 8, !tbaa !3
  %.fca.0.insert.i29 = insertvalue { i64, i32 } poison, i64 %.sroa.011.0.copyload.i, 0
  %.fca.1.insert.i30 = insertvalue { i64, i32 } %.fca.0.insert.i29, i32 %.sroa.212.0.copyload.i, 1
  call void @llvm.lifetime.end.p0(i64 12, ptr nonnull %2)
  ret { i64, i32 } %.fca.1.insert.i30
}